target datalayout = "e-m:e-p270:32:32-p271:32:32-p272:64:64-i64:64-i128:128-f80:128-n8:16:32:64-S128"
target triple = "x86_64-pc-linux-gnu"

%struct._object = type { %union.anon, ptr }
%union.anon = type { i64 }
%struct._typeobject = type { %struct.PyVarObject, ptr, i64, i64, ptr, i64, ptr, ptr, ptr, ptr, ptr, ptr, ptr, ptr, ptr, ptr, ptr, ptr, ptr, i64, ptr, ptr, ptr, ptr, i64, ptr, ptr, ptr, ptr, ptr, ptr, ptr, ptr, ptr, i64, ptr, ptr, ptr, ptr, ptr, ptr, ptr, ptr, ptr, ptr, ptr, i32, ptr, ptr, i8, i16 }
%struct.PyVarObject = type { %struct._object, i64 }
%struct.PyFloatObject = type { %struct._object, double }

@PyFloat_Type = external global %struct._typeobject, align 8
@.str.67 = private unnamed_addr constant [5 x i8] c"(di)\00", align 1

; Function Attrs: inlinehint nounwind uwtable
define internal ptr @_Py_TYPE(ptr noundef %0) #6 {
  %2 = alloca ptr, align 8
  store ptr %0, ptr %2, align 8, !tbaa !3
  %3 = load ptr, ptr %2, align 8, !tbaa !3
  %4 = getelementptr inbounds nuw %struct._object, ptr %3, i32 0, i32 1
  %5 = load ptr, ptr %4, align 8, !tbaa !48
  ret ptr %5
}

; Function Attrs: nounwind uwtable
define internal ptr @math_frexp_impl(ptr noundef %0, double noundef %1) #0 {
  %3 = alloca ptr, align 8
  %4 = alloca double, align 8
  %5 = alloca i32, align 4
  store ptr %0, ptr %3, align 8, !tbaa !3
  store double %1, ptr %4, align 8, !tbaa !13
  call void @llvm.lifetime.start.p0(i64 4, ptr %5) #10
  %6 = load double, ptr %4, align 8, !tbaa !13
  %7 = call i1 @llvm.is.fpclass.f64(double %6, i32 3)
  br i1 %7, label %20, label %8

8:                                                ; preds = %2
  %9 = load double, ptr %4, align 8, !tbaa !13
  %10 = call double @llvm.fabs.f64(double %9) #11
  %11 = fcmp oeq double %10, 0x7FF0000000000000
  %12 = bitcast double %9 to i64
  %13 = icmp slt i64 %12, 0
  %14 = select i1 %13, i32 -1, i32 1
  %15 = select i1 %11, i32 %14, i32 0
  %16 = icmp ne i32 %15, 0
  br i1 %16, label %20, label %17

17:                                               ; preds = %8
  %18 = load double, ptr %4, align 8, !tbaa !13
  %19 = fcmp une double %18, 0.000000e+00
  br i1 %19, label %21, label %20

20:                                               ; preds = %17, %8, %2
  store i32 0, ptr %5, align 4, !tbaa !17
  br label %24

21:                                               ; preds = %17
  %22 = load double, ptr %4, align 8, !tbaa !13
  %23 = call double @frexp(double noundef %22, ptr noundef %5) #10
  store double %23, ptr %4, align 8, !tbaa !13
  br label %24

24:                                               ; preds = %21, %20
  %25 = load double, ptr %4, align 8, !tbaa !13
  %26 = load i32, ptr %5, align 4, !tbaa !17
  %27 = call ptr (ptr, ...) @Py_BuildValue(ptr noundef @.str.67, double noundef %25, i32 noundef %26)
  call void @llvm.lifetime.end.p0(i64 4, ptr %5) #10
  ret ptr %27
}

; Function Attrs: inlinehint nounwind uwtable
define internal double @PyFloat_AS_DOUBLE(ptr noundef %0) #6 {
  %2 = alloca ptr, align 8
  store ptr %0, ptr %2, align 8, !tbaa !3
  %3 = load ptr, ptr %2, align 8, !tbaa !3
  %4 = getelementptr inbounds nuw %struct.PyFloatObject, ptr %3, i32 0, i32 1
  %5 = load double, ptr %4, align 8, !tbaa !43
  ret double %5
}

; Function Attrs: inlinehint nounwind uwtable
define internal i32 @Py_IS_TYPE(ptr noundef %0, ptr noundef %1) #6 {
  %3 = alloca ptr, align 8
  %4 = alloca ptr, align 8
  store ptr %0, ptr %3, align 8, !tbaa !3
  store ptr %1, ptr %4, align 8, !tbaa !42
  %5 = load ptr, ptr %3, align 8, !tbaa !3
  %6 = call ptr @_Py_TYPE(ptr noundef %5)
  %7 = load ptr, ptr %4, align 8, !tbaa !42
  %8 = icmp eq ptr %6, %7
  %9 = zext i1 %8 to i32
  ret i32 %9
}

; Function Attrs: nounwind uwtable
define internal ptr @math_frexp(ptr noundef %0, ptr noundef %1) #0 {
  %3 = alloca ptr, align 8
  %4 = alloca ptr, align 8
  %5 = alloca ptr, align 8
  %6 = alloca double, align 8
  store ptr %0, ptr %3, align 8, !tbaa !3
  store ptr %1, ptr %4, align 8, !tbaa !3
  call void @llvm.lifetime.start.p0(i64 8, ptr %5) #10
  store ptr null, ptr %5, align 8, !tbaa !3
  call void @llvm.lifetime.start.p0(i64 8, ptr %6) #10
  %7 = load ptr, ptr %4, align 8, !tbaa !3
  %8 = call i32 @Py_IS_TYPE(ptr noundef %7, ptr noundef @PyFloat_Type)
  %9 = icmp ne i32 %8, 0
  br i1 %9, label %10, label %13

10:                                               ; preds = %2
  %11 = load ptr, ptr %4, align 8, !tbaa !3
  %12 = call double @PyFloat_AS_DOUBLE(ptr noundef %11)
  store double %12, ptr %6, align 8, !tbaa !13
  br label %23

13:                                               ; preds = %2
  %14 = load ptr, ptr %4, align 8, !tbaa !3
  %15 = call double @PyFloat_AsDouble(ptr noundef %14)
  store double %15, ptr %6, align 8, !tbaa !13
  %16 = load double, ptr %6, align 8, !tbaa !13
  %17 = fcmp oeq double %16, -1.000000e+00
  br i1 %17, label %18, label %22

18:                                               ; preds = %13
  %19 = call ptr @PyErr_Occurred()
  %20 = icmp ne ptr %19, null
  br i1 %20, label %21, label %22

21:                                               ; preds = %18
  br label %27

22:                                               ; preds = %18, %13
  br label %23

23:                                               ; preds = %22, %10
  %24 = load ptr, ptr %3, align 8, !tbaa !3
  %25 = load double, ptr %6, align 8, !tbaa !13
  %26 = call ptr @math_frexp_impl(ptr noundef %24, double noundef %25)
  store ptr %26, ptr %5, align 8, !tbaa !3
  br label %27

27:                                               ; preds = %23, %21
  %28 = load ptr, ptr %5, align 8, !tbaa !3
  call void @llvm.lifetime.end.p0(i64 8, ptr %6) #10
  call void @llvm.lifetime.end.p0(i64 8, ptr %5) #10
  ret ptr %28
}