; Function Attrs: nounwind uwtable
define internal ptr @math_frexp(ptr readnone captures(none) %0, ptr noundef %1) #0 {
  %3 = alloca i32, align 4
  %4 = getelementptr i8, ptr %1, i64 8
  %.val = load ptr, ptr %4, align 8, !tbaa !16
  %.not = icmp eq ptr %.val, @PyFloat_Type
  br i1 %.not, label %5, label %7

5:                                                ; preds = %2
  %6 = getelementptr i8, ptr %1, i64 16
  %.val10 = load double, ptr %6, align 8, !tbaa !17
  br label %12

7:                                                ; preds = %2
  %8 = tail call double @PyFloat_AsDouble(ptr noundef nonnull %1) #16
  %9 = fcmp oeq double %8, -1.000000e+00
  br i1 %9, label %10, label %12

10:                                               ; preds = %7
  %11 = tail call ptr @PyErr_Occurred() #16
  %.not9 = icmp eq ptr %11, null
  br i1 %.not9, label %.thread, label %19

.thread:                                          ; preds = %10
  call void @llvm.lifetime.start.p0(i64 4, ptr nonnull %3) #16
  br label %14

12:                                               ; preds = %7, %5
  %.0 = phi double [ %.val10, %5 ], [ %8, %7 ]
  call void @llvm.lifetime.start.p0(i64 4, ptr nonnull %3) #16
  %13 = fcmp uno double %.0, 0.000000e+00
  br i1 %13, label %math_frexp_impl.exit, label %14

14:                                               ; preds = %.thread, %12
  %.012 = phi double [ -1.000000e+00, %.thread ], [ %.0, %12 ]
  %or.cond.i = tail call i1 @llvm.is.fpclass.f64(double %.012, i32 408)
  br i1 %or.cond.i, label %15, label %math_frexp_impl.exit

15:                                               ; preds = %14
  %16 = call double @frexp(double noundef %.012, ptr noundef nonnull %3) #16
  %.pre.i = load i32, ptr %3, align 4, !tbaa !14
  br label %math_frexp_impl.exit

math_frexp_impl.exit:                             ; preds = %12, %14, %15
  %17 = phi i32 [ %.pre.i, %15 ], [ 0, %14 ], [ 0, %12 ]
  %.0.i = phi double [ %16, %15 ], [ %.012, %14 ], [ %.0, %12 ]
  %18 = tail call ptr (ptr, ...) @Py_BuildValue(ptr noundef nonnull @.str.67, double noundef %.0.i, i32 noundef %17) #16
  call void @llvm.lifetime.end.p0(i64 4, ptr nonnull %3) #16
  br label %19

19:                                               ; preds = %10, %math_frexp_impl.exit
  %.07 = phi ptr [ %18, %math_frexp_impl.exit ], [ null, %10 ]
  ret ptr %.07
}